target datalayout = "e-m:e-p270:32:32-p271:32:32-p272:64:64-i64:64-i128:128-f80:128-n8:16:32:64-S128"
target triple = "x86_64-pc-linux-gnu"

%struct.Type_ = type { i32, ptr, ptr, ptr, %union.anon, ptr, ptr, %union.anon.1 }
%union.anon = type { ptr }
%union.anon.1 = type { %struct.TypeFunction }
%struct.TypeFunction = type { ptr, ptr, ptr }

; Function Attrs: nounwind uwtable
define dso_local ptr @type_get_optional(ptr noundef %0) #0 {
  %2 = alloca ptr, align 8
  store ptr %0, ptr %2, align 8
  %3 = load ptr, ptr %2, align 8
  %4 = call ptr @type_generate_optional(ptr noundef %3, i1 noundef zeroext false)
  ret ptr %4
}

; Function Attrs: nounwind uwtable
define dso_local ptr @type_get_ptr(ptr noundef %0) #0 {
  %2 = alloca ptr, align 8
  store ptr %0, ptr %2, align 8
  %3 = load ptr, ptr %2, align 8
  %4 = call ptr @type_generate_ptr(ptr noundef %3, i1 noundef zeroext false)
  ret ptr %4
}

; Function Attrs: nounwind uwtable
define dso_local ptr @type_get_ptr_recurse(ptr noundef %0) #0 {
  %2 = alloca ptr, align 8
  %3 = alloca ptr, align 8
  store ptr %0, ptr %3, align 8
  %4 = load ptr, ptr %3, align 8
  %5 = getelementptr inbounds %struct.Type_, ptr %4, i32 0, i32 0
  %6 = load i32, ptr %5, align 8
  %7 = icmp eq i32 %6, 40
  br i1 %7, label %8, label %15

8:                                                ; preds = %1
  %9 = load ptr, ptr %3, align 8
  %10 = getelementptr inbounds %struct.Type_, ptr %9, i32 0, i32 7
  %11 = load ptr, ptr %10, align 8
  store ptr %11, ptr %3, align 8
  %12 = load ptr, ptr %3, align 8
  %13 = call ptr @type_get_ptr(ptr noundef %12)
  %14 = call ptr @type_get_optional(ptr noundef %13)
  store ptr %14, ptr %2, align 8
  br label %18

15:                                               ; preds = %1
  %16 = load ptr, ptr %3, align 8
  %17 = call ptr @type_get_ptr(ptr noundef %16)
  store ptr %17, ptr %2, align 8
  br label %18

18:                                               ; preds = %15, %8
  %19 = load ptr, ptr %2, align 8
  ret ptr %19
}