; Function Attrs: nounwind uwtable
define dso_local ptr @type_get_ptr_recurse(ptr noundef %0) local_unnamed_addr #0 {
  %2 = load i32, ptr %0, align 8
  %3 = icmp eq i32 %2, 40
  br i1 %3, label %4, label %9

4:                                                ; preds = %1
  %5 = getelementptr inbounds i8, ptr %0, i64 56
  %6 = load ptr, ptr %5, align 8
  %7 = tail call fastcc ptr @type_generate_ptr(ptr noundef %6, i1 noundef zeroext false)
  %8 = tail call fastcc ptr @type_generate_optional(ptr noundef %7, i1 noundef zeroext false)
  br label %11

9:                                                ; preds = %1
  %10 = tail call fastcc ptr @type_generate_ptr(ptr noundef nonnull %0, i1 noundef zeroext false)
  br label %11

11:                                               ; preds = %9, %4
  %.0 = phi ptr [ %8, %4 ], [ %10, %9 ]
  ret ptr %.0
}